target datalayout = "e-m:e-p270:32:32-p271:32:32-p272:64:64-i64:64-i128:128-f80:128-n8:16:32:64-S128"
target triple = "x86_64-pc-linux-gnu"

%struct.AVFilterContext = type { ptr, ptr, ptr, ptr, ptr, i32, ptr, ptr, i32, ptr, ptr, i32, i32, ptr, ptr, ptr, ptr, i32, ptr, i32, i32 }
%struct.FFTFILTContext = type { ptr, i32, i32, i32, i32, [4 x i32], [4 x i32], [32 x [4 x ptr]], [32 x [4 x ptr]], [32 x [4 x ptr]], [32 x [4 x ptr]], ptr, ptr, ptr, ptr, [4 x i32], [4 x i32], [4 x i64], [4 x i64], [4 x i64], [4 x i64], [4 x ptr], [4 x ptr], [4 x ptr], [4 x ptr], [4 x i32], [4 x ptr], [4 x ptr], [4 x ptr], ptr, ptr }

; Function Attrs: nounwind uwtable
define internal i32 @rdft_vertical(ptr noundef %0, ptr noundef %1, i32 noundef %2, i32 noundef %3) #1 {
  %5 = alloca ptr, align 8
  %6 = alloca ptr, align 8
  %7 = alloca i32, align 4
  %8 = alloca i32, align 4
  %9 = alloca ptr, align 8
  %10 = alloca i32, align 4
  %11 = alloca i32, align 4
  %12 = alloca i32, align 4
  %13 = alloca i32, align 4
  %14 = alloca i32, align 4
  %15 = alloca i32, align 4
  store ptr %0, ptr %5, align 8, !tbaa !4
  store ptr %1, ptr %6, align 8, !tbaa !26
  store i32 %2, ptr %7, align 4, !tbaa !24
  store i32 %3, ptr %8, align 4, !tbaa !24
  call void @llvm.lifetime.start.p0(i64 8, ptr %9) #10
  %16 = load ptr, ptr %5, align 8, !tbaa !4
  %17 = getelementptr inbounds nuw %struct.AVFilterContext, ptr %16, i32 0, i32 9
  %18 = load ptr, ptr %17, align 8, !tbaa !9
  store ptr %18, ptr %9, align 8, !tbaa !22
  call void @llvm.lifetime.start.p0(i64 4, ptr %10) #10
  store i32 0, ptr %10, align 4, !tbaa !24
  br label %19

19:                                               ; preds = %100, %4
  %20 = load i32, ptr %10, align 4, !tbaa !24
  %21 = load ptr, ptr %9, align 8, !tbaa !22
  %22 = getelementptr inbounds nuw %struct.FFTFILTContext, ptr %21, i32 0, i32 3
  %23 = load i32, ptr %22, align 8, !tbaa !51
  %24 = icmp slt i32 %20, %23
  br i1 %24, label %26, label %25

25:                                               ; preds = %19
  store i32 2, ptr %11, align 4
  call void @llvm.lifetime.end.p0(i64 4, ptr %10) #10
  br label %103

26:                                               ; preds = %19
  call void @llvm.lifetime.start.p0(i64 4, ptr %12) #10
  %27 = load ptr, ptr %9, align 8, !tbaa !22
  %28 = getelementptr inbounds nuw %struct.FFTFILTContext, ptr %27, i32 0, i32 19
  %29 = load i32, ptr %10, align 4, !tbaa !24
  %30 = sext i32 %29 to i64
  %31 = getelementptr inbounds [4 x i64], ptr %28, i64 0, i64 %30
  %32 = load i64, ptr %31, align 8, !tbaa !54
  %33 = trunc i64 %32 to i32
  store i32 %33, ptr %12, align 4, !tbaa !24
  call void @llvm.lifetime.start.p0(i64 4, ptr %13) #10
  %34 = load i32, ptr %12, align 4, !tbaa !24
  %35 = load i32, ptr %7, align 4, !tbaa !24
  %36 = mul nsw i32 %34, %35
  %37 = load i32, ptr %8, align 4, !tbaa !24
  %38 = sdiv i32 %36, %37
  store i32 %38, ptr %13, align 4, !tbaa !24
  call void @llvm.lifetime.start.p0(i64 4, ptr %14) #10
  %39 = load i32, ptr %12, align 4, !tbaa !24
  %40 = load i32, ptr %7, align 4, !tbaa !24
  %41 = add nsw i32 %40, 1
  %42 = mul nsw i32 %39, %41
  %43 = load i32, ptr %8, align 4, !tbaa !24
  %44 = sdiv i32 %42, %43
  store i32 %44, ptr %14, align 4, !tbaa !24
  call void @llvm.lifetime.start.p0(i64 4, ptr %15) #10
  %45 = load i32, ptr %13, align 4, !tbaa !24
  store i32 %45, ptr %15, align 4, !tbaa !24
  br label %46

46:                                               ; preds = %96, %26
  %47 = load i32, ptr %15, align 4, !tbaa !24
  %48 = load i32, ptr %14, align 4, !tbaa !24
  %49 = icmp slt i32 %47, %48
  br i1 %49, label %51, label %50

50:                                               ; preds = %46
  store i32 5, ptr %11, align 4
  call void @llvm.lifetime.end.p0(i64 4, ptr %15) #10
  br label %99

51:                                               ; preds = %46
  %52 = load ptr, ptr %9, align 8, !tbaa !22
  %53 = getelementptr inbounds nuw %struct.FFTFILTContext, ptr %52, i32 0, i32 13
  %54 = load ptr, ptr %53, align 8, !tbaa !80
  %55 = load ptr, ptr %9, align 8, !tbaa !22
  %56 = getelementptr inbounds nuw %struct.FFTFILTContext, ptr %55, i32 0, i32 8
  %57 = load i32, ptr %7, align 4, !tbaa !24
  %58 = sext i32 %57 to i64
  %59 = getelementptr inbounds [32 x [4 x ptr]], ptr %56, i64 0, i64 %58
  %60 = load i32, ptr %10, align 4, !tbaa !24
  %61 = sext i32 %60 to i64
  %62 = getelementptr inbounds [4 x ptr], ptr %59, i64 0, i64 %61
  %63 = load ptr, ptr %62, align 8, !tbaa !81
  %64 = load ptr, ptr %9, align 8, !tbaa !22
  %65 = getelementptr inbounds nuw %struct.FFTFILTContext, ptr %64, i32 0, i32 24
  %66 = load i32, ptr %10, align 4, !tbaa !24
  %67 = sext i32 %66 to i64
  %68 = getelementptr inbounds [4 x ptr], ptr %65, i64 0, i64 %67
  %69 = load ptr, ptr %68, align 8, !tbaa !57
  %70 = load i32, ptr %15, align 4, !tbaa !24
  %71 = sext i32 %70 to i64
  %72 = load ptr, ptr %9, align 8, !tbaa !22
  %73 = getelementptr inbounds nuw %struct.FFTFILTContext, ptr %72, i32 0, i32 18
  %74 = load i32, ptr %10, align 4, !tbaa !24
  %75 = sext i32 %74 to i64
  %76 = getelementptr inbounds [4 x i64], ptr %73, i64 0, i64 %75
  %77 = load i64, ptr %76, align 8, !tbaa !54
  %78 = mul i64 %71, %77
  %79 = getelementptr inbounds nuw float, ptr %69, i64 %78
  %80 = load ptr, ptr %9, align 8, !tbaa !22
  %81 = getelementptr inbounds nuw %struct.FFTFILTContext, ptr %80, i32 0, i32 22
  %82 = load i32, ptr %10, align 4, !tbaa !24
  %83 = sext i32 %82 to i64
  %84 = getelementptr inbounds [4 x ptr], ptr %81, i64 0, i64 %83
  %85 = load ptr, ptr %84, align 8, !tbaa !57
  %86 = load i32, ptr %15, align 4, !tbaa !24
  %87 = sext i32 %86 to i64
  %88 = load ptr, ptr %9, align 8, !tbaa !22
  %89 = getelementptr inbounds nuw %struct.FFTFILTContext, ptr %88, i32 0, i32 18
  %90 = load i32, ptr %10, align 4, !tbaa !24
  %91 = sext i32 %90 to i64
  %92 = getelementptr inbounds [4 x i64], ptr %89, i64 0, i64 %91
  %93 = load i64, ptr %92, align 8, !tbaa !54
  %94 = mul i64 %87, %93
  %95 = getelementptr inbounds nuw float, ptr %85, i64 %94
  call void %54(ptr noundef %63, ptr noundef %79, ptr noundef %95, i64 noundef 4)
  br label %96

96:                                               ; preds = %51
  %97 = load i32, ptr %15, align 4, !tbaa !24
  %98 = add nsw i32 %97, 1
  store i32 %98, ptr %15, align 4, !tbaa !24
  br label %46, !llvm.loop !83

99:                                               ; preds = %50
  call void @llvm.lifetime.end.p0(i64 4, ptr %14) #10
  call void @llvm.lifetime.end.p0(i64 4, ptr %13) #10
  call void @llvm.lifetime.end.p0(i64 4, ptr %12) #10
  br label %100

100:                                              ; preds = %99
  %101 = load i32, ptr %10, align 4, !tbaa !24
  %102 = add nsw i32 %101, 1
  store i32 %102, ptr %10, align 4, !tbaa !24
  br label %19, !llvm.loop !84

103:                                              ; preds = %25
  store i32 1, ptr %11, align 4
  call void @llvm.lifetime.end.p0(i64 8, ptr %9) #10
  ret i32 0
}