; Function Attrs: nounwind uwtable
define internal noundef i32 @rdft_vertical(ptr noundef readonly captures(none) %0, ptr readnone captures(none) %1, i32 noundef %2, i32 noundef %3) #1 {
  %5 = getelementptr inbounds nuw i8, ptr %0, i64 72
  %6 = load ptr, ptr %5, align 8, !tbaa !4
  %7 = getelementptr inbounds nuw i8, ptr %6, i64 16
  %8 = load i32, ptr %7, align 8, !tbaa !48
  %9 = icmp sgt i32 %8, 0
  br i1 %9, label %.lr.ph33, label %._crit_edge34

.lr.ph33:                                         ; preds = %4
  %10 = getelementptr inbounds nuw i8, ptr %6, i64 4280
  %11 = add nsw i32 %2, 1
  %12 = getelementptr inbounds nuw i8, ptr %6, i64 4168
  %13 = getelementptr inbounds nuw i8, ptr %6, i64 1080
  %14 = sext i32 %2 to i64
  %15 = getelementptr inbounds nuw i8, ptr %6, i64 4440
  %16 = getelementptr inbounds nuw i8, ptr %6, i64 4248
  %17 = getelementptr inbounds nuw i8, ptr %6, i64 4376
  br label %18

._crit_edge34:                                    ; preds = %._crit_edge, %4
  ret i32 0

18:                                               ; preds = %.lr.ph33, %._crit_edge
  %19 = phi i32 [ %8, %.lr.ph33 ], [ %33, %._crit_edge ]
  %indvars.iv36 = phi i64 [ 0, %.lr.ph33 ], [ %indvars.iv.next37, %._crit_edge ]
  %20 = getelementptr inbounds nuw [4 x i64], ptr %10, i64 0, i64 %indvars.iv36
  %21 = load i64, ptr %20, align 8, !tbaa !56
  %22 = trunc i64 %21 to i32
  %23 = mul nsw i32 %2, %22
  %24 = sdiv i32 %23, %3
  %25 = mul nsw i32 %11, %22
  %26 = sdiv i32 %25, %3
  %27 = icmp slt i32 %24, %26
  br i1 %27, label %.lr.ph, label %._crit_edge

.lr.ph:                                           ; preds = %18
  %28 = getelementptr inbounds [32 x [4 x ptr]], ptr %13, i64 0, i64 %14, i64 %indvars.iv36
  %29 = getelementptr inbounds nuw [4 x ptr], ptr %15, i64 0, i64 %indvars.iv36
  %30 = getelementptr inbounds nuw [4 x i64], ptr %16, i64 0, i64 %indvars.iv36
  %31 = getelementptr inbounds nuw [4 x ptr], ptr %17, i64 0, i64 %indvars.iv36
  %32 = sext i32 %24 to i64
  br label %36

._crit_edge.loopexit:                             ; preds = %36
  %.pre = load i32, ptr %7, align 8, !tbaa !48
  br label %._crit_edge

._crit_edge:                                      ; preds = %._crit_edge.loopexit, %18
  %33 = phi i32 [ %.pre, %._crit_edge.loopexit ], [ %19, %18 ]
  %indvars.iv.next37 = add nuw nsw i64 %indvars.iv36, 1
  %34 = sext i32 %33 to i64
  %35 = icmp slt i64 %indvars.iv.next37, %34
  br i1 %35, label %18, label %._crit_edge34, !llvm.loop !85

36:                                               ; preds = %.lr.ph, %36
  %indvars.iv = phi i64 [ %32, %.lr.ph ], [ %indvars.iv.next, %36 ]
  %37 = load ptr, ptr %12, align 8, !tbaa !86
  %38 = load ptr, ptr %28, align 8, !tbaa !87
  %39 = load ptr, ptr %29, align 8, !tbaa !63
  %40 = load i64, ptr %30, align 8, !tbaa !56
  %41 = mul i64 %40, %indvars.iv
  %42 = getelementptr inbounds nuw float, ptr %39, i64 %41
  %43 = load ptr, ptr %31, align 8, !tbaa !63
  %44 = getelementptr inbounds nuw float, ptr %43, i64 %41
  tail call void %37(ptr noundef %38, ptr noundef %42, ptr noundef %44, i64 noundef 4) #10
  %indvars.iv.next = add nsw i64 %indvars.iv, 1
  %lftr.wideiv = trunc i64 %indvars.iv.next to i32
  %exitcond.not = icmp eq i32 %26, %lftr.wideiv
  br i1 %exitcond.not, label %._crit_edge.loopexit, label %36, !llvm.loop !89
}